	.text
	.file	"main"
	.globl	main                    # -- Begin function main
	.p2align	4, 0x90
	.type	main,@function
main:                                   # @main
	.cfi_startproc
# %bb.0:                                # %entry
	subq	$24, %rsp
	.cfi_def_cfa_offset 32
	movq	$5, 16(%rsp)
	movq	$5, a(%rip)
	movq	$4, a+8(%rip)
	movq	$3, a+16(%rip)
	movq	$2, a+24(%rip)
	movq	$1, a+32(%rip)
	movq	a+40(%rip), %r9
	subq	$8, %rsp
	.cfi_adjust_cfa_offset 8
	movl	$5, %edi
	movl	$4, %esi
	movl	$3, %edx
	movl	$2, %ecx
	movl	$1, %r8d
	pushq	$5
	.cfi_adjust_cfa_offset 8
	pushq	a+7992(%rip)
	.cfi_adjust_cfa_offset 8
	pushq	a+7984(%rip)
	.cfi_adjust_cfa_offset 8
	pushq	a+7976(%rip)
	.cfi_adjust_cfa_offset 8
	pushq	a+7968(%rip)
	.cfi_adjust_cfa_offset 8
	pushq	a+7960(%rip)
	.cfi_adjust_cfa_offset 8
	pushq	a+7952(%rip)
	.cfi_adjust_cfa_offset 8
	pushq	a+7944(%rip)
	.cfi_adjust_cfa_offset 8
	pushq	a+7936(%rip)
	.cfi_adjust_cfa_offset 8
	pushq	a+7928(%rip)
	.cfi_adjust_cfa_offset 8
	pushq	a+7920(%rip)
	.cfi_adjust_cfa_offset 8
	pushq	a+7912(%rip)
	.cfi_adjust_cfa_offset 8
	pushq	a+7904(%rip)
	.cfi_adjust_cfa_offset 8
	pushq	a+7896(%rip)
	.cfi_adjust_cfa_offset 8
	pushq	a+7888(%rip)
	.cfi_adjust_cfa_offset 8
	pushq	a+7880(%rip)
	.cfi_adjust_cfa_offset 8
	pushq	a+7872(%rip)
	.cfi_adjust_cfa_offset 8
	pushq	a+7864(%rip)
	.cfi_adjust_cfa_offset 8
	pushq	a+7856(%rip)
	.cfi_adjust_cfa_offset 8
	pushq	a+7848(%rip)
	.cfi_adjust_cfa_offset 8
	pushq	a+7840(%rip)
	.cfi_adjust_cfa_offset 8
	pushq	a+7832(%rip)
	.cfi_adjust_cfa_offset 8
	pushq	a+7824(%rip)
	.cfi_adjust_cfa_offset 8
	pushq	a+7816(%rip)
	.cfi_adjust_cfa_offset 8
	pushq	a+7808(%rip)
	.cfi_adjust_cfa_offset 8
	pushq	a+7800(%rip)
	.cfi_adjust_cfa_offset 8
	pushq	a+7792(%rip)
	.cfi_adjust_cfa_offset 8
	pushq	a+7784(%rip)
	.cfi_adjust_cfa_offset 8
	pushq	a+7776(%rip)
	.cfi_adjust_cfa_offset 8
	pushq	a+7768(%rip)
	.cfi_adjust_cfa_offset 8
	pushq	a+7760(%rip)
	.cfi_adjust_cfa_offset 8
	pushq	a+7752(%rip)
	.cfi_adjust_cfa_offset 8
	pushq	a+7744(%rip)
	.cfi_adjust_cfa_offset 8
	pushq	a+7736(%rip)
	.cfi_adjust_cfa_offset 8
	pushq	a+7728(%rip)
	.cfi_adjust_cfa_offset 8
	pushq	a+7720(%rip)
	.cfi_adjust_cfa_offset 8
	pushq	a+7712(%rip)
	.cfi_adjust_cfa_offset 8
	pushq	a+7704(%rip)
	.cfi_adjust_cfa_offset 8
	pushq	a+7696(%rip)
	.cfi_adjust_cfa_offset 8
	pushq	a+7688(%rip)
	.cfi_adjust_cfa_offset 8
	pushq	a+7680(%rip)
	.cfi_adjust_cfa_offset 8
	pushq	a+7672(%rip)
	.cfi_adjust_cfa_offset 8
	pushq	a+7664(%rip)
	.cfi_adjust_cfa_offset 8
	pushq	a+7656(%rip)
	.cfi_adjust_cfa_offset 8
	pushq	a+7648(%rip)
	.cfi_adjust_cfa_offset 8
	pushq	a+7640(%rip)
	.cfi_adjust_cfa_offset 8
	pushq	a+7632(%rip)
	.cfi_adjust_cfa_offset 8
	pushq	a+7624(%rip)
	.cfi_adjust_cfa_offset 8
	pushq	a+7616(%rip)
	.cfi_adjust_cfa_offset 8
	pushq	a+7608(%rip)
	.cfi_adjust_cfa_offset 8
	pushq	a+7600(%rip)
	.cfi_adjust_cfa_offset 8
	pushq	a+7592(%rip)
	.cfi_adjust_cfa_offset 8
	pushq	a+7584(%rip)
	.cfi_adjust_cfa_offset 8
	pushq	a+7576(%rip)
	.cfi_adjust_cfa_offset 8
	pushq	a+7568(%rip)
	.cfi_adjust_cfa_offset 8
	pushq	a+7560(%rip)
	.cfi_adjust_cfa_offset 8
	pushq	a+7552(%rip)
	.cfi_adjust_cfa_offset 8
	pushq	a+7544(%rip)
	.cfi_adjust_cfa_offset 8
	pushq	a+7536(%rip)
	.cfi_adjust_cfa_offset 8
	pushq	a+7528(%rip)
	.cfi_adjust_cfa_offset 8
	pushq	a+7520(%rip)
	.cfi_adjust_cfa_offset 8
	pushq	a+7512(%rip)
	.cfi_adjust_cfa_offset 8
	pushq	a+7504(%rip)
	.cfi_adjust_cfa_offset 8
	pushq	a+7496(%rip)
	.cfi_adjust_cfa_offset 8
	pushq	a+7488(%rip)
	.cfi_adjust_cfa_offset 8
	pushq	a+7480(%rip)
	.cfi_adjust_cfa_offset 8
	pushq	a+7472(%rip)
	.cfi_adjust_cfa_offset 8
	pushq	a+7464(%rip)
	.cfi_adjust_cfa_offset 8
	pushq	a+7456(%rip)
	.cfi_adjust_cfa_offset 8
	pushq	a+7448(%rip)
	.cfi_adjust_cfa_offset 8
	pushq	a+7440(%rip)
	.cfi_adjust_cfa_offset 8
	pushq	a+7432(%rip)
	.cfi_adjust_cfa_offset 8
	pushq	a+7424(%rip)
	.cfi_adjust_cfa_offset 8
	pushq	a+7416(%rip)
	.cfi_adjust_cfa_offset 8
	pushq	a+7408(%rip)
	.cfi_adjust_cfa_offset 8
	pushq	a+7400(%rip)
	.cfi_adjust_cfa_offset 8
	pushq	a+7392(%rip)
	.cfi_adjust_cfa_offset 8
	pushq	a+7384(%rip)
	.cfi_adjust_cfa_offset 8
	pushq	a+7376(%rip)
	.cfi_adjust_cfa_offset 8
	pushq	a+7368(%rip)
	.cfi_adjust_cfa_offset 8
	pushq	a+7360(%rip)
	.cfi_adjust_cfa_offset 8
	pushq	a+7352(%rip)
	.cfi_adjust_cfa_offset 8
	pushq	a+7344(%rip)
	.cfi_adjust_cfa_offset 8
	pushq	a+7336(%rip)
	.cfi_adjust_cfa_offset 8
	pushq	a+7328(%rip)
	.cfi_adjust_cfa_offset 8
	pushq	a+7320(%rip)
	.cfi_adjust_cfa_offset 8
	pushq	a+7312(%rip)
	.cfi_adjust_cfa_offset 8
	pushq	a+7304(%rip)
	.cfi_adjust_cfa_offset 8
	pushq	a+7296(%rip)
	.cfi_adjust_cfa_offset 8
	pushq	a+7288(%rip)
	.cfi_adjust_cfa_offset 8
	pushq	a+7280(%rip)
	.cfi_adjust_cfa_offset 8
	pushq	a+7272(%rip)
	.cfi_adjust_cfa_offset 8
	pushq	a+7264(%rip)
	.cfi_adjust_cfa_offset 8
	pushq	a+7256(%rip)
	.cfi_adjust_cfa_offset 8
	pushq	a+7248(%rip)
	.cfi_adjust_cfa_offset 8
	pushq	a+7240(%rip)
	.cfi_adjust_cfa_offset 8
	pushq	a+7232(%rip)
	.cfi_adjust_cfa_offset 8
	pushq	a+7224(%rip)
	.cfi_adjust_cfa_offset 8
	pushq	a+7216(%rip)
	.cfi_adjust_cfa_offset 8
	pushq	a+7208(%rip)
	.cfi_adjust_cfa_offset 8
	pushq	a+7200(%rip)
	.cfi_adjust_cfa_offset 8
	pushq	a+7192(%rip)
	.cfi_adjust_cfa_offset 8
	pushq	a+7184(%rip)
	.cfi_adjust_cfa_offset 8
	pushq	a+7176(%rip)
	.cfi_adjust_cfa_offset 8
	pushq	a+7168(%rip)
	.cfi_adjust_cfa_offset 8
	pushq	a+7160(%rip)
	.cfi_adjust_cfa_offset 8
	pushq	a+7152(%rip)
	.cfi_adjust_cfa_offset 8
	pushq	a+7144(%rip)
	.cfi_adjust_cfa_offset 8
	pushq	a+7136(%rip)
	.cfi_adjust_cfa_offset 8
	pushq	a+7128(%rip)
	.cfi_adjust_cfa_offset 8
	pushq	a+7120(%rip)
	.cfi_adjust_cfa_offset 8
	pushq	a+7112(%rip)
	.cfi_adjust_cfa_offset 8
	pushq	a+7104(%rip)
	.cfi_adjust_cfa_offset 8
	pushq	a+7096(%rip)
	.cfi_adjust_cfa_offset 8
	pushq	a+7088(%rip)
	.cfi_adjust_cfa_offset 8
	pushq	a+7080(%rip)
	.cfi_adjust_cfa_offset 8
	pushq	a+7072(%rip)
	.cfi_adjust_cfa_offset 8
	pushq	a+7064(%rip)
	.cfi_adjust_cfa_offset 8
	pushq	a+7056(%rip)
	.cfi_adjust_cfa_offset 8
	pushq	a+7048(%rip)
	.cfi_adjust_cfa_offset 8
	pushq	a+7040(%rip)
	.cfi_adjust_cfa_offset 8
	pushq	a+7032(%rip)
	.cfi_adjust_cfa_offset 8
	pushq	a+7024(%rip)
	.cfi_adjust_cfa_offset 8
	pushq	a+7016(%rip)
	.cfi_adjust_cfa_offset 8
	pushq	a+7008(%rip)
	.cfi_adjust_cfa_offset 8
	pushq	a+7000(%rip)
	.cfi_adjust_cfa_offset 8
	pushq	a+6992(%rip)
	.cfi_adjust_cfa_offset 8
	pushq	a+6984(%rip)
	.cfi_adjust_cfa_offset 8
	pushq	a+6976(%rip)
	.cfi_adjust_cfa_offset 8
	pushq	a+6968(%rip)
	.cfi_adjust_cfa_offset 8
	pushq	a+6960(%rip)
	.cfi_adjust_cfa_offset 8
	pushq	a+6952(%rip)
	.cfi_adjust_cfa_offset 8
	pushq	a+6944(%rip)
	.cfi_adjust_cfa_offset 8
	pushq	a+6936(%rip)
	.cfi_adjust_cfa_offset 8
	pushq	a+6928(%rip)
	.cfi_adjust_cfa_offset 8
	pushq	a+6920(%rip)
	.cfi_adjust_cfa_offset 8
	pushq	a+6912(%rip)
	.cfi_adjust_cfa_offset 8
	pushq	a+6904(%rip)
	.cfi_adjust_cfa_offset 8
	pushq	a+6896(%rip)
	.cfi_adjust_cfa_offset 8
	pushq	a+6888(%rip)
	.cfi_adjust_cfa_offset 8
	pushq	a+6880(%rip)
	.cfi_adjust_cfa_offset 8
	pushq	a+6872(%rip)
	.cfi_adjust_cfa_offset 8
	pushq	a+6864(%rip)
	.cfi_adjust_cfa_offset 8
	pushq	a+6856(%rip)
	.cfi_adjust_cfa_offset 8
	pushq	a+6848(%rip)
	.cfi_adjust_cfa_offset 8
	pushq	a+6840(%rip)
	.cfi_adjust_cfa_offset 8
	pushq	a+6832(%rip)
	.cfi_adjust_cfa_offset 8
	pushq	a+6824(%rip)
	.cfi_adjust_cfa_offset 8
	pushq	a+6816(%rip)
	.cfi_adjust_cfa_offset 8
	pushq	a+6808(%rip)
	.cfi_adjust_cfa_offset 8
	pushq	a+6800(%rip)
	.cfi_adjust_cfa_offset 8
	pushq	a+6792(%rip)
	.cfi_adjust_cfa_offset 8
	pushq	a+6784(%rip)
	.cfi_adjust_cfa_offset 8
	pushq	a+6776(%rip)
	.cfi_adjust_cfa_offset 8
	pushq	a+6768(%rip)
	.cfi_adjust_cfa_offset 8
	pushq	a+6760(%rip)
	.cfi_adjust_cfa_offset 8
	pushq	a+6752(%rip)
	.cfi_adjust_cfa_offset 8
	pushq	a+6744(%rip)
	.cfi_adjust_cfa_offset 8
	pushq	a+6736(%rip)
	.cfi_adjust_cfa_offset 8
	pushq	a+6728(%rip)
	.cfi_adjust_cfa_offset 8
	pushq	a+6720(%rip)
	.cfi_adjust_cfa_offset 8
	pushq	a+6712(%rip)
	.cfi_adjust_cfa_offset 8
	pushq	a+6704(%rip)
	.cfi_adjust_cfa_offset 8
	pushq	a+6696(%rip)
	.cfi_adjust_cfa_offset 8
	pushq	a+6688(%rip)
	.cfi_adjust_cfa_offset 8
	pushq	a+6680(%rip)
	.cfi_adjust_cfa_offset 8
	pushq	a+6672(%rip)
	.cfi_adjust_cfa_offset 8
	pushq	a+6664(%rip)
	.cfi_adjust_cfa_offset 8
	pushq	a+6656(%rip)
	.cfi_adjust_cfa_offset 8
	pushq	a+6648(%rip)
	.cfi_adjust_cfa_offset 8
	pushq	a+6640(%rip)
	.cfi_adjust_cfa_offset 8
	pushq	a+6632(%rip)
	.cfi_adjust_cfa_offset 8
	pushq	a+6624(%rip)
	.cfi_adjust_cfa_offset 8
	pushq	a+6616(%rip)
	.cfi_adjust_cfa_offset 8
	pushq	a+6608(%rip)
	.cfi_adjust_cfa_offset 8
	pushq	a+6600(%rip)
	.cfi_adjust_cfa_offset 8
	pushq	a+6592(%rip)
	.cfi_adjust_cfa_offset 8
	pushq	a+6584(%rip)
	.cfi_adjust_cfa_offset 8
	pushq	a+6576(%rip)
	.cfi_adjust_cfa_offset 8
	pushq	a+6568(%rip)
	.cfi_adjust_cfa_offset 8
	pushq	a+6560(%rip)
	.cfi_adjust_cfa_offset 8
	pushq	a+6552(%rip)
	.cfi_adjust_cfa_offset 8
	pushq	a+6544(%rip)
	.cfi_adjust_cfa_offset 8
	pushq	a+6536(%rip)
	.cfi_adjust_cfa_offset 8
	pushq	a+6528(%rip)
	.cfi_adjust_cfa_offset 8
	pushq	a+6520(%rip)
	.cfi_adjust_cfa_offset 8
	pushq	a+6512(%rip)
	.cfi_adjust_cfa_offset 8
	pushq	a+6504(%rip)
	.cfi_adjust_cfa_offset 8
	pushq	a+6496(%rip)
	.cfi_adjust_cfa_offset 8
	pushq	a+6488(%rip)
	.cfi_adjust_cfa_offset 8
	pushq	a+6480(%rip)
	.cfi_adjust_cfa_offset 8
	pushq	a+6472(%rip)
	.cfi_adjust_cfa_offset 8
	pushq	a+6464(%rip)
	.cfi_adjust_cfa_offset 8
	pushq	a+6456(%rip)
	.cfi_adjust_cfa_offset 8
	pushq	a+6448(%rip)
	.cfi_adjust_cfa_offset 8
	pushq	a+6440(%rip)
	.cfi_adjust_cfa_offset 8
	pushq	a+6432(%rip)
	.cfi_adjust_cfa_offset 8
	pushq	a+6424(%rip)
	.cfi_adjust_cfa_offset 8
	pushq	a+6416(%rip)
	.cfi_adjust_cfa_offset 8
	pushq	a+6408(%rip)
	.cfi_adjust_cfa_offset 8
	pushq	a+6400(%rip)
	.cfi_adjust_cfa_offset 8
	pushq	a+6392(%rip)
	.cfi_adjust_cfa_offset 8
	pushq	a+6384(%rip)
	.cfi_adjust_cfa_offset 8
	pushq	a+6376(%rip)
	.cfi_adjust_cfa_offset 8
	pushq	a+6368(%rip)
	.cfi_adjust_cfa_offset 8
	pushq	a+6360(%rip)
	.cfi_adjust_cfa_offset 8
	pushq	a+6352(%rip)
	.cfi_adjust_cfa_offset 8
	pushq	a+6344(%rip)
	.cfi_adjust_cfa_offset 8
	pushq	a+6336(%rip)
	.cfi_adjust_cfa_offset 8
	pushq	a+6328(%rip)
	.cfi_adjust_cfa_offset 8
	pushq	a+6320(%rip)
	.cfi_adjust_cfa_offset 8
	pushq	a+6312(%rip)
	.cfi_adjust_cfa_offset 8
	pushq	a+6304(%rip)
	.cfi_adjust_cfa_offset 8
	pushq	a+6296(%rip)
	.cfi_adjust_cfa_offset 8
	pushq	a+6288(%rip)
	.cfi_adjust_cfa_offset 8
	pushq	a+6280(%rip)
	.cfi_adjust_cfa_offset 8
	pushq	a+6272(%rip)
	.cfi_adjust_cfa_offset 8
	pushq	a+6264(%rip)
	.cfi_adjust_cfa_offset 8
	pushq	a+6256(%rip)
	.cfi_adjust_cfa_offset 8
	pushq	a+6248(%rip)
	.cfi_adjust_cfa_offset 8
	pushq	a+6240(%rip)
	.cfi_adjust_cfa_offset 8
	pushq	a+6232(%rip)
	.cfi_adjust_cfa_offset 8
	pushq	a+6224(%rip)
	.cfi_adjust_cfa_offset 8
	pushq	a+6216(%rip)
	.cfi_adjust_cfa_offset 8
	pushq	a+6208(%rip)
	.cfi_adjust_cfa_offset 8
	pushq	a+6200(%rip)
	.cfi_adjust_cfa_offset 8
	pushq	a+6192(%rip)
	.cfi_adjust_cfa_offset 8
	pushq	a+6184(%rip)
	.cfi_adjust_cfa_offset 8
	pushq	a+6176(%rip)
	.cfi_adjust_cfa_offset 8
	pushq	a+6168(%rip)
	.cfi_adjust_cfa_offset 8
	pushq	a+6160(%rip)
	.cfi_adjust_cfa_offset 8
	pushq	a+6152(%rip)
	.cfi_adjust_cfa_offset 8
	pushq	a+6144(%rip)
	.cfi_adjust_cfa_offset 8
	pushq	a+6136(%rip)
	.cfi_adjust_cfa_offset 8
	pushq	a+6128(%rip)
	.cfi_adjust_cfa_offset 8
	pushq	a+6120(%rip)
	.cfi_adjust_cfa_offset 8
	pushq	a+6112(%rip)
	.cfi_adjust_cfa_offset 8
	pushq	a+6104(%rip)
	.cfi_adjust_cfa_offset 8
	pushq	a+6096(%rip)
	.cfi_adjust_cfa_offset 8
	pushq	a+6088(%rip)
	.cfi_adjust_cfa_offset 8
	pushq	a+6080(%rip)
	.cfi_adjust_cfa_offset 8
	pushq	a+6072(%rip)
	.cfi_adjust_cfa_offset 8
	pushq	a+6064(%rip)
	.cfi_adjust_cfa_offset 8
	pushq	a+6056(%rip)
	.cfi_adjust_cfa_offset 8
	pushq	a+6048(%rip)
	.cfi_adjust_cfa_offset 8
	pushq	a+6040(%rip)
	.cfi_adjust_cfa_offset 8
	pushq	a+6032(%rip)
	.cfi_adjust_cfa_offset 8
	pushq	a+6024(%rip)
	.cfi_adjust_cfa_offset 8
	pushq	a+6016(%rip)
	.cfi_adjust_cfa_offset 8
	pushq	a+6008(%rip)
	.cfi_adjust_cfa_offset 8
	pushq	a+6000(%rip)
	.cfi_adjust_cfa_offset 8
	pushq	a+5992(%rip)
	.cfi_adjust_cfa_offset 8
	pushq	a+5984(%rip)
	.cfi_adjust_cfa_offset 8
	pushq	a+5976(%rip)
	.cfi_adjust_cfa_offset 8
	pushq	a+5968(%rip)
	.cfi_adjust_cfa_offset 8
	pushq	a+5960(%rip)
	.cfi_adjust_cfa_offset 8
	pushq	a+5952(%rip)
	.cfi_adjust_cfa_offset 8
	pushq	a+5944(%rip)
	.cfi_adjust_cfa_offset 8
	pushq	a+5936(%rip)
	.cfi_adjust_cfa_offset 8
	pushq	a+5928(%rip)
	.cfi_adjust_cfa_offset 8
	pushq	a+5920(%rip)
	.cfi_adjust_cfa_offset 8
	pushq	a+5912(%rip)
	.cfi_adjust_cfa_offset 8
	pushq	a+5904(%rip)
	.cfi_adjust_cfa_offset 8
	pushq	a+5896(%rip)
	.cfi_adjust_cfa_offset 8
	pushq	a+5888(%rip)
	.cfi_adjust_cfa_offset 8
	pushq	a+5880(%rip)
	.cfi_adjust_cfa_offset 8
	pushq	a+5872(%rip)
	.cfi_adjust_cfa_offset 8
	pushq	a+5864(%rip)
	.cfi_adjust_cfa_offset 8
	pushq	a+5856(%rip)
	.cfi_adjust_cfa_offset 8
	pushq	a+5848(%rip)
	.cfi_adjust_cfa_offset 8
	pushq	a+5840(%rip)
	.cfi_adjust_cfa_offset 8
	pushq	a+5832(%rip)
	.cfi_adjust_cfa_offset 8
	pushq	a+5824(%rip)
	.cfi_adjust_cfa_offset 8
	pushq	a+5816(%rip)
	.cfi_adjust_cfa_offset 8
	pushq	a+5808(%rip)
	.cfi_adjust_cfa_offset 8
	pushq	a+5800(%rip)
	.cfi_adjust_cfa_offset 8
	pushq	a+5792(%rip)
	.cfi_adjust_cfa_offset 8
	pushq	a+5784(%rip)
	.cfi_adjust_cfa_offset 8
	pushq	a+5776(%rip)
	.cfi_adjust_cfa_offset 8
	pushq	a+5768(%rip)
	.cfi_adjust_cfa_offset 8
	pushq	a+5760(%rip)
	.cfi_adjust_cfa_offset 8
	pushq	a+5752(%rip)
	.cfi_adjust_cfa_offset 8
	pushq	a+5744(%rip)
	.cfi_adjust_cfa_offset 8
	pushq	a+5736(%rip)
	.cfi_adjust_cfa_offset 8
	pushq	a+5728(%rip)
	.cfi_adjust_cfa_offset 8
	pushq	a+5720(%rip)
	.cfi_adjust_cfa_offset 8
	pushq	a+5712(%rip)
	.cfi_adjust_cfa_offset 8
	pushq	a+5704(%rip)
	.cfi_adjust_cfa_offset 8
	pushq	a+5696(%rip)
	.cfi_adjust_cfa_offset 8
	pushq	a+5688(%rip)
	.cfi_adjust_cfa_offset 8
	pushq	a+5680(%rip)
	.cfi_adjust_cfa_offset 8
	pushq	a+5672(%rip)
	.cfi_adjust_cfa_offset 8
	pushq	a+5664(%rip)
	.cfi_adjust_cfa_offset 8
	pushq	a+5656(%rip)
	.cfi_adjust_cfa_offset 8
	pushq	a+5648(%rip)
	.cfi_adjust_cfa_offset 8
	pushq	a+5640(%rip)
	.cfi_adjust_cfa_offset 8
	pushq	a+5632(%rip)
	.cfi_adjust_cfa_offset 8
	pushq	a+5624(%rip)
	.cfi_adjust_cfa_offset 8
	pushq	a+5616(%rip)
	.cfi_adjust_cfa_offset 8
	pushq	a+5608(%rip)
	.cfi_adjust_cfa_offset 8
	pushq	a+5600(%rip)
	.cfi_adjust_cfa_offset 8
	pushq	a+5592(%rip)
	.cfi_adjust_cfa_offset 8
	pushq	a+5584(%rip)
	.cfi_adjust_cfa_offset 8
	pushq	a+5576(%rip)
	.cfi_adjust_cfa_offset 8
	pushq	a+5568(%rip)
	.cfi_adjust_cfa_offset 8
	pushq	a+5560(%rip)
	.cfi_adjust_cfa_offset 8
	pushq	a+5552(%rip)
	.cfi_adjust_cfa_offset 8
	pushq	a+5544(%rip)
	.cfi_adjust_cfa_offset 8
	pushq	a+5536(%rip)
	.cfi_adjust_cfa_offset 8
	pushq	a+5528(%rip)
	.cfi_adjust_cfa_offset 8
	pushq	a+5520(%rip)
	.cfi_adjust_cfa_offset 8
	pushq	a+5512(%rip)
	.cfi_adjust_cfa_offset 8
	pushq	a+5504(%rip)
	.cfi_adjust_cfa_offset 8
	pushq	a+5496(%rip)
	.cfi_adjust_cfa_offset 8
	pushq	a+5488(%rip)
	.cfi_adjust_cfa_offset 8
	pushq	a+5480(%rip)
	.cfi_adjust_cfa_offset 8
	pushq	a+5472(%rip)
	.cfi_adjust_cfa_offset 8
	pushq	a+5464(%rip)
	.cfi_adjust_cfa_offset 8
	pushq	a+5456(%rip)
	.cfi_adjust_cfa_offset 8
	pushq	a+5448(%rip)
	.cfi_adjust_cfa_offset 8
	pushq	a+5440(%rip)
	.cfi_adjust_cfa_offset 8
	pushq	a+5432(%rip)
	.cfi_adjust_cfa_offset 8
	pushq	a+5424(%rip)
	.cfi_adjust_cfa_offset 8
	pushq	a+5416(%rip)
	.cfi_adjust_cfa_offset 8
	pushq	a+5408(%rip)
	.cfi_adjust_cfa_offset 8
	pushq	a+5400(%rip)
	.cfi_adjust_cfa_offset 8
	pushq	a+5392(%rip)
	.cfi_adjust_cfa_offset 8
	pushq	a+5384(%rip)
	.cfi_adjust_cfa_offset 8
	pushq	a+5376(%rip)
	.cfi_adjust_cfa_offset 8
	pushq	a+5368(%rip)
	.cfi_adjust_cfa_offset 8
	pushq	a+5360(%rip)
	.cfi_adjust_cfa_offset 8
	pushq	a+5352(%rip)
	.cfi_adjust_cfa_offset 8
	pushq	a+5344(%rip)
	.cfi_adjust_cfa_offset 8
	pushq	a+5336(%rip)
	.cfi_adjust_cfa_offset 8
	pushq	a+5328(%rip)
	.cfi_adjust_cfa_offset 8
	pushq	a+5320(%rip)
	.cfi_adjust_cfa_offset 8
	pushq	a+5312(%rip)
	.cfi_adjust_cfa_offset 8
	pushq	a+5304(%rip)
	.cfi_adjust_cfa_offset 8
	pushq	a+5296(%rip)
	.cfi_adjust_cfa_offset 8
	pushq	a+5288(%rip)
	.cfi_adjust_cfa_offset 8
	pushq	a+5280(%rip)
	.cfi_adjust_cfa_offset 8
	pushq	a+5272(%rip)
	.cfi_adjust_cfa_offset 8
	pushq	a+5264(%rip)
	.cfi_adjust_cfa_offset 8
	pushq	a+5256(%rip)
	.cfi_adjust_cfa_offset 8
	pushq	a+5248(%rip)
	.cfi_adjust_cfa_offset 8
	pushq	a+5240(%rip)
	.cfi_adjust_cfa_offset 8
	pushq	a+5232(%rip)
	.cfi_adjust_cfa_offset 8
	pushq	a+5224(%rip)
	.cfi_adjust_cfa_offset 8
	pushq	a+5216(%rip)
	.cfi_adjust_cfa_offset 8
	pushq	a+5208(%rip)
	.cfi_adjust_cfa_offset 8
	pushq	a+5200(%rip)
	.cfi_adjust_cfa_offset 8
	pushq	a+5192(%rip)
	.cfi_adjust_cfa_offset 8
	pushq	a+5184(%rip)
	.cfi_adjust_cfa_offset 8
	pushq	a+5176(%rip)
	.cfi_adjust_cfa_offset 8
	pushq	a+5168(%rip)
	.cfi_adjust_cfa_offset 8
	pushq	a+5160(%rip)
	.cfi_adjust_cfa_offset 8
	pushq	a+5152(%rip)
	.cfi_adjust_cfa_offset 8
	pushq	a+5144(%rip)
	.cfi_adjust_cfa_offset 8
	pushq	a+5136(%rip)
	.cfi_adjust_cfa_offset 8
	pushq	a+5128(%rip)
	.cfi_adjust_cfa_offset 8
	pushq	a+5120(%rip)
	.cfi_adjust_cfa_offset 8
	pushq	a+5112(%rip)
	.cfi_adjust_cfa_offset 8
	pushq	a+5104(%rip)
	.cfi_adjust_cfa_offset 8
	pushq	a+5096(%rip)
	.cfi_adjust_cfa_offset 8
	pushq	a+5088(%rip)
	.cfi_adjust_cfa_offset 8
	pushq	a+5080(%rip)
	.cfi_adjust_cfa_offset 8
	pushq	a+5072(%rip)
	.cfi_adjust_cfa_offset 8
	pushq	a+5064(%rip)
	.cfi_adjust_cfa_offset 8
	pushq	a+5056(%rip)
	.cfi_adjust_cfa_offset 8
	pushq	a+5048(%rip)
	.cfi_adjust_cfa_offset 8
	pushq	a+5040(%rip)
	.cfi_adjust_cfa_offset 8
	pushq	a+5032(%rip)
	.cfi_adjust_cfa_offset 8
	pushq	a+5024(%rip)
	.cfi_adjust_cfa_offset 8
	pushq	a+5016(%rip)
	.cfi_adjust_cfa_offset 8
	pushq	a+5008(%rip)
	.cfi_adjust_cfa_offset 8
	pushq	a+5000(%rip)
	.cfi_adjust_cfa_offset 8
	pushq	a+4992(%rip)
	.cfi_adjust_cfa_offset 8
	pushq	a+4984(%rip)
	.cfi_adjust_cfa_offset 8
	pushq	a+4976(%rip)
	.cfi_adjust_cfa_offset 8
	pushq	a+4968(%rip)
	.cfi_adjust_cfa_offset 8
	pushq	a+4960(%rip)
	.cfi_adjust_cfa_offset 8
	pushq	a+4952(%rip)
	.cfi_adjust_cfa_offset 8
	pushq	a+4944(%rip)
	.cfi_adjust_cfa_offset 8
	pushq	a+4936(%rip)
	.cfi_adjust_cfa_offset 8
	pushq	a+4928(%rip)
	.cfi_adjust_cfa_offset 8
	pushq	a+4920(%rip)
	.cfi_adjust_cfa_offset 8
	pushq	a+4912(%rip)
	.cfi_adjust_cfa_offset 8
	pushq	a+4904(%rip)
	.cfi_adjust_cfa_offset 8
	pushq	a+4896(%rip)
	.cfi_adjust_cfa_offset 8
	pushq	a+4888(%rip)
	.cfi_adjust_cfa_offset 8
	pushq	a+4880(%rip)
	.cfi_adjust_cfa_offset 8
	pushq	a+4872(%rip)
	.cfi_adjust_cfa_offset 8
	pushq	a+4864(%rip)
	.cfi_adjust_cfa_offset 8
	pushq	a+4856(%rip)
	.cfi_adjust_cfa_offset 8
	pushq	a+4848(%rip)
	.cfi_adjust_cfa_offset 8
	pushq	a+4840(%rip)
	.cfi_adjust_cfa_offset 8
	pushq	a+4832(%rip)
	.cfi_adjust_cfa_offset 8
	pushq	a+4824(%rip)
	.cfi_adjust_cfa_offset 8
	pushq	a+4816(%rip)
	.cfi_adjust_cfa_offset 8
	pushq	a+4808(%rip)
	.cfi_adjust_cfa_offset 8
	pushq	a+4800(%rip)
	.cfi_adjust_cfa_offset 8
	pushq	a+4792(%rip)
	.cfi_adjust_cfa_offset 8
	pushq	a+4784(%rip)
	.cfi_adjust_cfa_offset 8
	pushq	a+4776(%rip)
	.cfi_adjust_cfa_offset 8
	pushq	a+4768(%rip)
	.cfi_adjust_cfa_offset 8
	pushq	a+4760(%rip)
	.cfi_adjust_cfa_offset 8
	pushq	a+4752(%rip)
	.cfi_adjust_cfa_offset 8
	pushq	a+4744(%rip)
	.cfi_adjust_cfa_offset 8
	pushq	a+4736(%rip)
	.cfi_adjust_cfa_offset 8
	pushq	a+4728(%rip)
	.cfi_adjust_cfa_offset 8
	pushq	a+4720(%rip)
	.cfi_adjust_cfa_offset 8
	pushq	a+4712(%rip)
	.cfi_adjust_cfa_offset 8
	pushq	a+4704(%rip)
	.cfi_adjust_cfa_offset 8
	pushq	a+4696(%rip)
	.cfi_adjust_cfa_offset 8
	pushq	a+4688(%rip)
	.cfi_adjust_cfa_offset 8
	pushq	a+4680(%rip)
	.cfi_adjust_cfa_offset 8
	pushq	a+4672(%rip)
	.cfi_adjust_cfa_offset 8
	pushq	a+4664(%rip)
	.cfi_adjust_cfa_offset 8
	pushq	a+4656(%rip)
	.cfi_adjust_cfa_offset 8
	pushq	a+4648(%rip)
	.cfi_adjust_cfa_offset 8
	pushq	a+4640(%rip)
	.cfi_adjust_cfa_offset 8
	pushq	a+4632(%rip)
	.cfi_adjust_cfa_offset 8
	pushq	a+4624(%rip)
	.cfi_adjust_cfa_offset 8
	pushq	a+4616(%rip)
	.cfi_adjust_cfa_offset 8
	pushq	a+4608(%rip)
	.cfi_adjust_cfa_offset 8
	pushq	a+4600(%rip)
	.cfi_adjust_cfa_offset 8
	pushq	a+4592(%rip)
	.cfi_adjust_cfa_offset 8
	pushq	a+4584(%rip)
	.cfi_adjust_cfa_offset 8
	pushq	a+4576(%rip)
	.cfi_adjust_cfa_offset 8
	pushq	a+4568(%rip)
	.cfi_adjust_cfa_offset 8
	pushq	a+4560(%rip)
	.cfi_adjust_cfa_offset 8
	pushq	a+4552(%rip)
	.cfi_adjust_cfa_offset 8
	pushq	a+4544(%rip)
	.cfi_adjust_cfa_offset 8
	pushq	a+4536(%rip)
	.cfi_adjust_cfa_offset 8
	pushq	a+4528(%rip)
	.cfi_adjust_cfa_offset 8
	pushq	a+4520(%rip)
	.cfi_adjust_cfa_offset 8
	pushq	a+4512(%rip)
	.cfi_adjust_cfa_offset 8
	pushq	a+4504(%rip)
	.cfi_adjust_cfa_offset 8
	pushq	a+4496(%rip)
	.cfi_adjust_cfa_offset 8
	pushq	a+4488(%rip)
	.cfi_adjust_cfa_offset 8
	pushq	a+4480(%rip)
	.cfi_adjust_cfa_offset 8
	pushq	a+4472(%rip)
	.cfi_adjust_cfa_offset 8
	pushq	a+4464(%rip)
	.cfi_adjust_cfa_offset 8
	pushq	a+4456(%rip)
	.cfi_adjust_cfa_offset 8
	pushq	a+4448(%rip)
	.cfi_adjust_cfa_offset 8
	pushq	a+4440(%rip)
	.cfi_adjust_cfa_offset 8
	pushq	a+4432(%rip)
	.cfi_adjust_cfa_offset 8
	pushq	a+4424(%rip)
	.cfi_adjust_cfa_offset 8
	pushq	a+4416(%rip)
	.cfi_adjust_cfa_offset 8
	pushq	a+4408(%rip)
	.cfi_adjust_cfa_offset 8
	pushq	a+4400(%rip)
	.cfi_adjust_cfa_offset 8
	pushq	a+4392(%rip)
	.cfi_adjust_cfa_offset 8
	pushq	a+4384(%rip)
	.cfi_adjust_cfa_offset 8
	pushq	a+4376(%rip)
	.cfi_adjust_cfa_offset 8
	pushq	a+4368(%rip)
	.cfi_adjust_cfa_offset 8
	pushq	a+4360(%rip)
	.cfi_adjust_cfa_offset 8
	pushq	a+4352(%rip)
	.cfi_adjust_cfa_offset 8
	pushq	a+4344(%rip)
	.cfi_adjust_cfa_offset 8
	pushq	a+4336(%rip)
	.cfi_adjust_cfa_offset 8
	pushq	a+4328(%rip)
	.cfi_adjust_cfa_offset 8
	pushq	a+4320(%rip)
	.cfi_adjust_cfa_offset 8
	pushq	a+4312(%rip)
	.cfi_adjust_cfa_offset 8
	pushq	a+4304(%rip)
	.cfi_adjust_cfa_offset 8
	pushq	a+4296(%rip)
	.cfi_adjust_cfa_offset 8
	pushq	a+4288(%rip)
	.cfi_adjust_cfa_offset 8
	pushq	a+4280(%rip)
	.cfi_adjust_cfa_offset 8
	pushq	a+4272(%rip)
	.cfi_adjust_cfa_offset 8
	pushq	a+4264(%rip)
	.cfi_adjust_cfa_offset 8
	pushq	a+4256(%rip)
	.cfi_adjust_cfa_offset 8
	pushq	a+4248(%rip)
	.cfi_adjust_cfa_offset 8
	pushq	a+4240(%rip)
	.cfi_adjust_cfa_offset 8
	pushq	a+4232(%rip)
	.cfi_adjust_cfa_offset 8
	pushq	a+4224(%rip)
	.cfi_adjust_cfa_offset 8
	pushq	a+4216(%rip)
	.cfi_adjust_cfa_offset 8
	pushq	a+4208(%rip)
	.cfi_adjust_cfa_offset 8
	pushq	a+4200(%rip)
	.cfi_adjust_cfa_offset 8
	pushq	a+4192(%rip)
	.cfi_adjust_cfa_offset 8
	pushq	a+4184(%rip)
	.cfi_adjust_cfa_offset 8
	pushq	a+4176(%rip)
	.cfi_adjust_cfa_offset 8
	pushq	a+4168(%rip)
	.cfi_adjust_cfa_offset 8
	pushq	a+4160(%rip)
	.cfi_adjust_cfa_offset 8
	pushq	a+4152(%rip)
	.cfi_adjust_cfa_offset 8
	pushq	a+4144(%rip)
	.cfi_adjust_cfa_offset 8
	pushq	a+4136(%rip)
	.cfi_adjust_cfa_offset 8
	pushq	a+4128(%rip)
	.cfi_adjust_cfa_offset 8
	pushq	a+4120(%rip)
	.cfi_adjust_cfa_offset 8
	pushq	a+4112(%rip)
	.cfi_adjust_cfa_offset 8
	pushq	a+4104(%rip)
	.cfi_adjust_cfa_offset 8
	pushq	a+4096(%rip)
	.cfi_adjust_cfa_offset 8
	pushq	a+4088(%rip)
	.cfi_adjust_cfa_offset 8
	pushq	a+4080(%rip)
	.cfi_adjust_cfa_offset 8
	pushq	a+4072(%rip)
	.cfi_adjust_cfa_offset 8
	pushq	a+4064(%rip)
	.cfi_adjust_cfa_offset 8
	pushq	a+4056(%rip)
	.cfi_adjust_cfa_offset 8
	pushq	a+4048(%rip)
	.cfi_adjust_cfa_offset 8
	pushq	a+4040(%rip)
	.cfi_adjust_cfa_offset 8
	pushq	a+4032(%rip)
	.cfi_adjust_cfa_offset 8
	pushq	a+4024(%rip)
	.cfi_adjust_cfa_offset 8
	pushq	a+4016(%rip)
	.cfi_adjust_cfa_offset 8
	pushq	a+4008(%rip)
	.cfi_adjust_cfa_offset 8
	pushq	a+4000(%rip)
	.cfi_adjust_cfa_offset 8
	pushq	a+3992(%rip)
	.cfi_adjust_cfa_offset 8
	pushq	a+3984(%rip)
	.cfi_adjust_cfa_offset 8
	pushq	a+3976(%rip)
	.cfi_adjust_cfa_offset 8
	pushq	a+3968(%rip)
	.cfi_adjust_cfa_offset 8
	pushq	a+3960(%rip)
	.cfi_adjust_cfa_offset 8
	pushq	a+3952(%rip)
	.cfi_adjust_cfa_offset 8
	pushq	a+3944(%rip)
	.cfi_adjust_cfa_offset 8
	pushq	a+3936(%rip)
	.cfi_adjust_cfa_offset 8
	pushq	a+3928(%rip)
	.cfi_adjust_cfa_offset 8
	pushq	a+3920(%rip)
	.cfi_adjust_cfa_offset 8
	pushq	a+3912(%rip)
	.cfi_adjust_cfa_offset 8
	pushq	a+3904(%rip)
	.cfi_adjust_cfa_offset 8
	pushq	a+3896(%rip)
	.cfi_adjust_cfa_offset 8
	pushq	a+3888(%rip)
	.cfi_adjust_cfa_offset 8
	pushq	a+3880(%rip)
	.cfi_adjust_cfa_offset 8
	pushq	a+3872(%rip)
	.cfi_adjust_cfa_offset 8
	pushq	a+3864(%rip)
	.cfi_adjust_cfa_offset 8
	pushq	a+3856(%rip)
	.cfi_adjust_cfa_offset 8
	pushq	a+3848(%rip)
	.cfi_adjust_cfa_offset 8
	pushq	a+3840(%rip)
	.cfi_adjust_cfa_offset 8
	pushq	a+3832(%rip)
	.cfi_adjust_cfa_offset 8
	pushq	a+3824(%rip)
	.cfi_adjust_cfa_offset 8
	pushq	a+3816(%rip)
	.cfi_adjust_cfa_offset 8
	pushq	a+3808(%rip)
	.cfi_adjust_cfa_offset 8
	pushq	a+3800(%rip)
	.cfi_adjust_cfa_offset 8
	pushq	a+3792(%rip)
	.cfi_adjust_cfa_offset 8
	pushq	a+3784(%rip)
	.cfi_adjust_cfa_offset 8
	pushq	a+3776(%rip)
	.cfi_adjust_cfa_offset 8
	pushq	a+3768(%rip)
	.cfi_adjust_cfa_offset 8
	pushq	a+3760(%rip)
	.cfi_adjust_cfa_offset 8
	pushq	a+3752(%rip)
	.cfi_adjust_cfa_offset 8
	pushq	a+3744(%rip)
	.cfi_adjust_cfa_offset 8
	pushq	a+3736(%rip)
	.cfi_adjust_cfa_offset 8
	pushq	a+3728(%rip)
	.cfi_adjust_cfa_offset 8
	pushq	a+3720(%rip)
	.cfi_adjust_cfa_offset 8
	pushq	a+3712(%rip)
	.cfi_adjust_cfa_offset 8
	pushq	a+3704(%rip)
	.cfi_adjust_cfa_offset 8
	pushq	a+3696(%rip)
	.cfi_adjust_cfa_offset 8
	pushq	a+3688(%rip)
	.cfi_adjust_cfa_offset 8
	pushq	a+3680(%rip)
	.cfi_adjust_cfa_offset 8
	pushq	a+3672(%rip)
	.cfi_adjust_cfa_offset 8
	pushq	a+3664(%rip)
	.cfi_adjust_cfa_offset 8
	pushq	a+3656(%rip)
	.cfi_adjust_cfa_offset 8
	pushq	a+3648(%rip)
	.cfi_adjust_cfa_offset 8
	pushq	a+3640(%rip)
	.cfi_adjust_cfa_offset 8
	pushq	a+3632(%rip)
	.cfi_adjust_cfa_offset 8
	pushq	a+3624(%rip)
	.cfi_adjust_cfa_offset 8
	pushq	a+3616(%rip)
	.cfi_adjust_cfa_offset 8
	pushq	a+3608(%rip)
	.cfi_adjust_cfa_offset 8
	pushq	a+3600(%rip)
	.cfi_adjust_cfa_offset 8
	pushq	a+3592(%rip)
	.cfi_adjust_cfa_offset 8
	pushq	a+3584(%rip)
	.cfi_adjust_cfa_offset 8
	pushq	a+3576(%rip)
	.cfi_adjust_cfa_offset 8
	pushq	a+3568(%rip)
	.cfi_adjust_cfa_offset 8
	pushq	a+3560(%rip)
	.cfi_adjust_cfa_offset 8
	pushq	a+3552(%rip)
	.cfi_adjust_cfa_offset 8
	pushq	a+3544(%rip)
	.cfi_adjust_cfa_offset 8
	pushq	a+3536(%rip)
	.cfi_adjust_cfa_offset 8
	pushq	a+3528(%rip)
	.cfi_adjust_cfa_offset 8
	pushq	a+3520(%rip)
	.cfi_adjust_cfa_offset 8
	pushq	a+3512(%rip)
	.cfi_adjust_cfa_offset 8
	pushq	a+3504(%rip)
	.cfi_adjust_cfa_offset 8
	pushq	a+3496(%rip)
	.cfi_adjust_cfa_offset 8
	pushq	a+3488(%rip)
	.cfi_adjust_cfa_offset 8
	pushq	a+3480(%rip)
	.cfi_adjust_cfa_offset 8
	pushq	a+3472(%rip)
	.cfi_adjust_cfa_offset 8
	pushq	a+3464(%rip)
	.cfi_adjust_cfa_offset 8
	pushq	a+3456(%rip)
	.cfi_adjust_cfa_offset 8
	pushq	a+3448(%rip)
	.cfi_adjust_cfa_offset 8
	pushq	a+3440(%rip)
	.cfi_adjust_cfa_offset 8
	pushq	a+3432(%rip)
	.cfi_adjust_cfa_offset 8
	pushq	a+3424(%rip)
	.cfi_adjust_cfa_offset 8
	pushq	a+3416(%rip)
	.cfi_adjust_cfa_offset 8
	pushq	a+3408(%rip)
	.cfi_adjust_cfa_offset 8
	pushq	a+3400(%rip)
	.cfi_adjust_cfa_offset 8
	pushq	a+3392(%rip)
	.cfi_adjust_cfa_offset 8
	pushq	a+3384(%rip)
	.cfi_adjust_cfa_offset 8
	pushq	a+3376(%rip)
	.cfi_adjust_cfa_offset 8
	pushq	a+3368(%rip)
	.cfi_adjust_cfa_offset 8
	pushq	a+3360(%rip)
	.cfi_adjust_cfa_offset 8
	pushq	a+3352(%rip)
	.cfi_adjust_cfa_offset 8
	pushq	a+3344(%rip)
	.cfi_adjust_cfa_offset 8
	pushq	a+3336(%rip)
	.cfi_adjust_cfa_offset 8
	pushq	a+3328(%rip)
	.cfi_adjust_cfa_offset 8
	pushq	a+3320(%rip)
	.cfi_adjust_cfa_offset 8
	pushq	a+3312(%rip)
	.cfi_adjust_cfa_offset 8
	pushq	a+3304(%rip)
	.cfi_adjust_cfa_offset 8
	pushq	a+3296(%rip)
	.cfi_adjust_cfa_offset 8
	pushq	a+3288(%rip)
	.cfi_adjust_cfa_offset 8
	pushq	a+3280(%rip)
	.cfi_adjust_cfa_offset 8
	pushq	a+3272(%rip)
	.cfi_adjust_cfa_offset 8
	pushq	a+3264(%rip)
	.cfi_adjust_cfa_offset 8
	pushq	a+3256(%rip)
	.cfi_adjust_cfa_offset 8
	pushq	a+3248(%rip)
	.cfi_adjust_cfa_offset 8
	pushq	a+3240(%rip)
	.cfi_adjust_cfa_offset 8
	pushq	a+3232(%rip)
	.cfi_adjust_cfa_offset 8
	pushq	a+3224(%rip)
	.cfi_adjust_cfa_offset 8
	pushq	a+3216(%rip)
	.cfi_adjust_cfa_offset 8
	pushq	a+3208(%rip)
	.cfi_adjust_cfa_offset 8
	pushq	a+3200(%rip)
	.cfi_adjust_cfa_offset 8
	pushq	a+3192(%rip)
	.cfi_adjust_cfa_offset 8
	pushq	a+3184(%rip)
	.cfi_adjust_cfa_offset 8
	pushq	a+3176(%rip)
	.cfi_adjust_cfa_offset 8
	pushq	a+3168(%rip)
	.cfi_adjust_cfa_offset 8
	pushq	a+3160(%rip)
	.cfi_adjust_cfa_offset 8
	pushq	a+3152(%rip)
	.cfi_adjust_cfa_offset 8
	pushq	a+3144(%rip)
	.cfi_adjust_cfa_offset 8
	pushq	a+3136(%rip)
	.cfi_adjust_cfa_offset 8
	pushq	a+3128(%rip)
	.cfi_adjust_cfa_offset 8
	pushq	a+3120(%rip)
	.cfi_adjust_cfa_offset 8
	pushq	a+3112(%rip)
	.cfi_adjust_cfa_offset 8
	pushq	a+3104(%rip)
	.cfi_adjust_cfa_offset 8
	pushq	a+3096(%rip)
	.cfi_adjust_cfa_offset 8
	pushq	a+3088(%rip)
	.cfi_adjust_cfa_offset 8
	pushq	a+3080(%rip)
	.cfi_adjust_cfa_offset 8
	pushq	a+3072(%rip)
	.cfi_adjust_cfa_offset 8
	pushq	a+3064(%rip)
	.cfi_adjust_cfa_offset 8
	pushq	a+3056(%rip)
	.cfi_adjust_cfa_offset 8
	pushq	a+3048(%rip)
	.cfi_adjust_cfa_offset 8
	pushq	a+3040(%rip)
	.cfi_adjust_cfa_offset 8
	pushq	a+3032(%rip)
	.cfi_adjust_cfa_offset 8
	pushq	a+3024(%rip)
	.cfi_adjust_cfa_offset 8
	pushq	a+3016(%rip)
	.cfi_adjust_cfa_offset 8
	pushq	a+3008(%rip)
	.cfi_adjust_cfa_offset 8
	pushq	a+3000(%rip)
	.cfi_adjust_cfa_offset 8
	pushq	a+2992(%rip)
	.cfi_adjust_cfa_offset 8
	pushq	a+2984(%rip)
	.cfi_adjust_cfa_offset 8
	pushq	a+2976(%rip)
	.cfi_adjust_cfa_offset 8
	pushq	a+2968(%rip)
	.cfi_adjust_cfa_offset 8
	pushq	a+2960(%rip)
	.cfi_adjust_cfa_offset 8
	pushq	a+2952(%rip)
	.cfi_adjust_cfa_offset 8
	pushq	a+2944(%rip)
	.cfi_adjust_cfa_offset 8
	pushq	a+2936(%rip)
	.cfi_adjust_cfa_offset 8
	pushq	a+2928(%rip)
	.cfi_adjust_cfa_offset 8
	pushq	a+2920(%rip)
	.cfi_adjust_cfa_offset 8
	pushq	a+2912(%rip)
	.cfi_adjust_cfa_offset 8
	pushq	a+2904(%rip)
	.cfi_adjust_cfa_offset 8
	pushq	a+2896(%rip)
	.cfi_adjust_cfa_offset 8
	pushq	a+2888(%rip)
	.cfi_adjust_cfa_offset 8
	pushq	a+2880(%rip)
	.cfi_adjust_cfa_offset 8
	pushq	a+2872(%rip)
	.cfi_adjust_cfa_offset 8
	pushq	a+2864(%rip)
	.cfi_adjust_cfa_offset 8
	pushq	a+2856(%rip)
	.cfi_adjust_cfa_offset 8
	pushq	a+2848(%rip)
	.cfi_adjust_cfa_offset 8
	pushq	a+2840(%rip)
	.cfi_adjust_cfa_offset 8
	pushq	a+2832(%rip)
	.cfi_adjust_cfa_offset 8
	pushq	a+2824(%rip)
	.cfi_adjust_cfa_offset 8
	pushq	a+2816(%rip)
	.cfi_adjust_cfa_offset 8
	pushq	a+2808(%rip)
	.cfi_adjust_cfa_offset 8
	pushq	a+2800(%rip)
	.cfi_adjust_cfa_offset 8
	pushq	a+2792(%rip)
	.cfi_adjust_cfa_offset 8
	pushq	a+2784(%rip)
	.cfi_adjust_cfa_offset 8
	pushq	a+2776(%rip)
	.cfi_adjust_cfa_offset 8
	pushq	a+2768(%rip)
	.cfi_adjust_cfa_offset 8
	pushq	a+2760(%rip)
	.cfi_adjust_cfa_offset 8
	pushq	a+2752(%rip)
	.cfi_adjust_cfa_offset 8
	pushq	a+2744(%rip)
	.cfi_adjust_cfa_offset 8
	pushq	a+2736(%rip)
	.cfi_adjust_cfa_offset 8
	pushq	a+2728(%rip)
	.cfi_adjust_cfa_offset 8
	pushq	a+2720(%rip)
	.cfi_adjust_cfa_offset 8
	pushq	a+2712(%rip)
	.cfi_adjust_cfa_offset 8
	pushq	a+2704(%rip)
	.cfi_adjust_cfa_offset 8
	pushq	a+2696(%rip)
	.cfi_adjust_cfa_offset 8
	pushq	a+2688(%rip)
	.cfi_adjust_cfa_offset 8
	pushq	a+2680(%rip)
	.cfi_adjust_cfa_offset 8
	pushq	a+2672(%rip)
	.cfi_adjust_cfa_offset 8
	pushq	a+2664(%rip)
	.cfi_adjust_cfa_offset 8
	pushq	a+2656(%rip)
	.cfi_adjust_cfa_offset 8
	pushq	a+2648(%rip)
	.cfi_adjust_cfa_offset 8
	pushq	a+2640(%rip)
	.cfi_adjust_cfa_offset 8
	pushq	a+2632(%rip)
	.cfi_adjust_cfa_offset 8
	pushq	a+2624(%rip)
	.cfi_adjust_cfa_offset 8
	pushq	a+2616(%rip)
	.cfi_adjust_cfa_offset 8
	pushq	a+2608(%rip)
	.cfi_adjust_cfa_offset 8
	pushq	a+2600(%rip)
	.cfi_adjust_cfa_offset 8
	pushq	a+2592(%rip)
	.cfi_adjust_cfa_offset 8
	pushq	a+2584(%rip)
	.cfi_adjust_cfa_offset 8
	pushq	a+2576(%rip)
	.cfi_adjust_cfa_offset 8
	pushq	a+2568(%rip)
	.cfi_adjust_cfa_offset 8
	pushq	a+2560(%rip)
	.cfi_adjust_cfa_offset 8
	pushq	a+2552(%rip)
	.cfi_adjust_cfa_offset 8
	pushq	a+2544(%rip)
	.cfi_adjust_cfa_offset 8
	pushq	a+2536(%rip)
	.cfi_adjust_cfa_offset 8
	pushq	a+2528(%rip)
	.cfi_adjust_cfa_offset 8
	pushq	a+2520(%rip)
	.cfi_adjust_cfa_offset 8
	pushq	a+2512(%rip)
	.cfi_adjust_cfa_offset 8
	pushq	a+2504(%rip)
	.cfi_adjust_cfa_offset 8
	pushq	a+2496(%rip)
	.cfi_adjust_cfa_offset 8
	pushq	a+2488(%rip)
	.cfi_adjust_cfa_offset 8
	pushq	a+2480(%rip)
	.cfi_adjust_cfa_offset 8
	pushq	a+2472(%rip)
	.cfi_adjust_cfa_offset 8
	pushq	a+2464(%rip)
	.cfi_adjust_cfa_offset 8
	pushq	a+2456(%rip)
	.cfi_adjust_cfa_offset 8
	pushq	a+2448(%rip)
	.cfi_adjust_cfa_offset 8
	pushq	a+2440(%rip)
	.cfi_adjust_cfa_offset 8
	pushq	a+2432(%rip)
	.cfi_adjust_cfa_offset 8
	pushq	a+2424(%rip)
	.cfi_adjust_cfa_offset 8
	pushq	a+2416(%rip)
	.cfi_adjust_cfa_offset 8
	pushq	a+2408(%rip)
	.cfi_adjust_cfa_offset 8
	pushq	a+2400(%rip)
	.cfi_adjust_cfa_offset 8
	pushq	a+2392(%rip)
	.cfi_adjust_cfa_offset 8
	pushq	a+2384(%rip)
	.cfi_adjust_cfa_offset 8
	pushq	a+2376(%rip)
	.cfi_adjust_cfa_offset 8
	pushq	a+2368(%rip)
	.cfi_adjust_cfa_offset 8
	pushq	a+2360(%rip)
	.cfi_adjust_cfa_offset 8
	pushq	a+2352(%rip)
	.cfi_adjust_cfa_offset 8
	pushq	a+2344(%rip)
	.cfi_adjust_cfa_offset 8
	pushq	a+2336(%rip)
	.cfi_adjust_cfa_offset 8
	pushq	a+2328(%rip)
	.cfi_adjust_cfa_offset 8
	pushq	a+2320(%rip)
	.cfi_adjust_cfa_offset 8
	pushq	a+2312(%rip)
	.cfi_adjust_cfa_offset 8
	pushq	a+2304(%rip)
	.cfi_adjust_cfa_offset 8
	pushq	a+2296(%rip)
	.cfi_adjust_cfa_offset 8
	pushq	a+2288(%rip)
	.cfi_adjust_cfa_offset 8
	pushq	a+2280(%rip)
	.cfi_adjust_cfa_offset 8
	pushq	a+2272(%rip)
	.cfi_adjust_cfa_offset 8
	pushq	a+2264(%rip)
	.cfi_adjust_cfa_offset 8
	pushq	a+2256(%rip)
	.cfi_adjust_cfa_offset 8
	pushq	a+2248(%rip)
	.cfi_adjust_cfa_offset 8
	pushq	a+2240(%rip)
	.cfi_adjust_cfa_offset 8
	pushq	a+2232(%rip)
	.cfi_adjust_cfa_offset 8
	pushq	a+2224(%rip)
	.cfi_adjust_cfa_offset 8
	pushq	a+2216(%rip)
	.cfi_adjust_cfa_offset 8
	pushq	a+2208(%rip)
	.cfi_adjust_cfa_offset 8
	pushq	a+2200(%rip)
	.cfi_adjust_cfa_offset 8
	pushq	a+2192(%rip)
	.cfi_adjust_cfa_offset 8
	pushq	a+2184(%rip)
	.cfi_adjust_cfa_offset 8
	pushq	a+2176(%rip)
	.cfi_adjust_cfa_offset 8
	pushq	a+2168(%rip)
	.cfi_adjust_cfa_offset 8
	pushq	a+2160(%rip)
	.cfi_adjust_cfa_offset 8
	pushq	a+2152(%rip)
	.cfi_adjust_cfa_offset 8
	pushq	a+2144(%rip)
	.cfi_adjust_cfa_offset 8
	pushq	a+2136(%rip)
	.cfi_adjust_cfa_offset 8
	pushq	a+2128(%rip)
	.cfi_adjust_cfa_offset 8
	pushq	a+2120(%rip)
	.cfi_adjust_cfa_offset 8
	pushq	a+2112(%rip)
	.cfi_adjust_cfa_offset 8
	pushq	a+2104(%rip)
	.cfi_adjust_cfa_offset 8
	pushq	a+2096(%rip)
	.cfi_adjust_cfa_offset 8
	pushq	a+2088(%rip)
	.cfi_adjust_cfa_offset 8
	pushq	a+2080(%rip)
	.cfi_adjust_cfa_offset 8
	pushq	a+2072(%rip)
	.cfi_adjust_cfa_offset 8
	pushq	a+2064(%rip)
	.cfi_adjust_cfa_offset 8
	pushq	a+2056(%rip)
	.cfi_adjust_cfa_offset 8
	pushq	a+2048(%rip)
	.cfi_adjust_cfa_offset 8
	pushq	a+2040(%rip)
	.cfi_adjust_cfa_offset 8
	pushq	a+2032(%rip)
	.cfi_adjust_cfa_offset 8
	pushq	a+2024(%rip)
	.cfi_adjust_cfa_offset 8
	pushq	a+2016(%rip)
	.cfi_adjust_cfa_offset 8
	pushq	a+2008(%rip)
	.cfi_adjust_cfa_offset 8
	pushq	a+2000(%rip)
	.cfi_adjust_cfa_offset 8
	pushq	a+1992(%rip)
	.cfi_adjust_cfa_offset 8
	pushq	a+1984(%rip)
	.cfi_adjust_cfa_offset 8
	pushq	a+1976(%rip)
	.cfi_adjust_cfa_offset 8
	pushq	a+1968(%rip)
	.cfi_adjust_cfa_offset 8
	pushq	a+1960(%rip)
	.cfi_adjust_cfa_offset 8
	pushq	a+1952(%rip)
	.cfi_adjust_cfa_offset 8
	pushq	a+1944(%rip)
	.cfi_adjust_cfa_offset 8
	pushq	a+1936(%rip)
	.cfi_adjust_cfa_offset 8
	pushq	a+1928(%rip)
	.cfi_adjust_cfa_offset 8
	pushq	a+1920(%rip)
	.cfi_adjust_cfa_offset 8
	pushq	a+1912(%rip)
	.cfi_adjust_cfa_offset 8
	pushq	a+1904(%rip)
	.cfi_adjust_cfa_offset 8
	pushq	a+1896(%rip)
	.cfi_adjust_cfa_offset 8
	pushq	a+1888(%rip)
	.cfi_adjust_cfa_offset 8
	pushq	a+1880(%rip)
	.cfi_adjust_cfa_offset 8
	pushq	a+1872(%rip)
	.cfi_adjust_cfa_offset 8
	pushq	a+1864(%rip)
	.cfi_adjust_cfa_offset 8
	pushq	a+1856(%rip)
	.cfi_adjust_cfa_offset 8
	pushq	a+1848(%rip)
	.cfi_adjust_cfa_offset 8
	pushq	a+1840(%rip)
	.cfi_adjust_cfa_offset 8
	pushq	a+1832(%rip)
	.cfi_adjust_cfa_offset 8
	pushq	a+1824(%rip)
	.cfi_adjust_cfa_offset 8
	pushq	a+1816(%rip)
	.cfi_adjust_cfa_offset 8
	pushq	a+1808(%rip)
	.cfi_adjust_cfa_offset 8
	pushq	a+1800(%rip)
	.cfi_adjust_cfa_offset 8
	pushq	a+1792(%rip)
	.cfi_adjust_cfa_offset 8
	pushq	a+1784(%rip)
	.cfi_adjust_cfa_offset 8
	pushq	a+1776(%rip)
	.cfi_adjust_cfa_offset 8
	pushq	a+1768(%rip)
	.cfi_adjust_cfa_offset 8
	pushq	a+1760(%rip)
	.cfi_adjust_cfa_offset 8
	pushq	a+1752(%rip)
	.cfi_adjust_cfa_offset 8
	pushq	a+1744(%rip)
	.cfi_adjust_cfa_offset 8
	pushq	a+1736(%rip)
	.cfi_adjust_cfa_offset 8
	pushq	a+1728(%rip)
	.cfi_adjust_cfa_offset 8
	pushq	a+1720(%rip)
	.cfi_adjust_cfa_offset 8
	pushq	a+1712(%rip)
	.cfi_adjust_cfa_offset 8
	pushq	a+1704(%rip)
	.cfi_adjust_cfa_offset 8
	pushq	a+1696(%rip)
	.cfi_adjust_cfa_offset 8
	pushq	a+1688(%rip)
	.cfi_adjust_cfa_offset 8
	pushq	a+1680(%rip)
	.cfi_adjust_cfa_offset 8
	pushq	a+1672(%rip)
	.cfi_adjust_cfa_offset 8
	pushq	a+1664(%rip)
	.cfi_adjust_cfa_offset 8
	pushq	a+1656(%rip)
	.cfi_adjust_cfa_offset 8
	pushq	a+1648(%rip)
	.cfi_adjust_cfa_offset 8
	pushq	a+1640(%rip)
	.cfi_adjust_cfa_offset 8
	pushq	a+1632(%rip)
	.cfi_adjust_cfa_offset 8
	pushq	a+1624(%rip)
	.cfi_adjust_cfa_offset 8
	pushq	a+1616(%rip)
	.cfi_adjust_cfa_offset 8
	pushq	a+1608(%rip)
	.cfi_adjust_cfa_offset 8
	pushq	a+1600(%rip)
	.cfi_adjust_cfa_offset 8
	pushq	a+1592(%rip)
	.cfi_adjust_cfa_offset 8
	pushq	a+1584(%rip)
	.cfi_adjust_cfa_offset 8
	pushq	a+1576(%rip)
	.cfi_adjust_cfa_offset 8
	pushq	a+1568(%rip)
	.cfi_adjust_cfa_offset 8
	pushq	a+1560(%rip)
	.cfi_adjust_cfa_offset 8
	pushq	a+1552(%rip)
	.cfi_adjust_cfa_offset 8
	pushq	a+1544(%rip)
	.cfi_adjust_cfa_offset 8
	pushq	a+1536(%rip)
	.cfi_adjust_cfa_offset 8
	pushq	a+1528(%rip)
	.cfi_adjust_cfa_offset 8
	pushq	a+1520(%rip)
	.cfi_adjust_cfa_offset 8
	pushq	a+1512(%rip)
	.cfi_adjust_cfa_offset 8
	pushq	a+1504(%rip)
	.cfi_adjust_cfa_offset 8
	pushq	a+1496(%rip)
	.cfi_adjust_cfa_offset 8
	pushq	a+1488(%rip)
	.cfi_adjust_cfa_offset 8
	pushq	a+1480(%rip)
	.cfi_adjust_cfa_offset 8
	pushq	a+1472(%rip)
	.cfi_adjust_cfa_offset 8
	pushq	a+1464(%rip)
	.cfi_adjust_cfa_offset 8
	pushq	a+1456(%rip)
	.cfi_adjust_cfa_offset 8
	pushq	a+1448(%rip)
	.cfi_adjust_cfa_offset 8
	pushq	a+1440(%rip)
	.cfi_adjust_cfa_offset 8
	pushq	a+1432(%rip)
	.cfi_adjust_cfa_offset 8
	pushq	a+1424(%rip)
	.cfi_adjust_cfa_offset 8
	pushq	a+1416(%rip)
	.cfi_adjust_cfa_offset 8
	pushq	a+1408(%rip)
	.cfi_adjust_cfa_offset 8
	pushq	a+1400(%rip)
	.cfi_adjust_cfa_offset 8
	pushq	a+1392(%rip)
	.cfi_adjust_cfa_offset 8
	pushq	a+1384(%rip)
	.cfi_adjust_cfa_offset 8
	pushq	a+1376(%rip)
	.cfi_adjust_cfa_offset 8
	pushq	a+1368(%rip)
	.cfi_adjust_cfa_offset 8
	pushq	a+1360(%rip)
	.cfi_adjust_cfa_offset 8
	pushq	a+1352(%rip)
	.cfi_adjust_cfa_offset 8
	pushq	a+1344(%rip)
	.cfi_adjust_cfa_offset 8
	pushq	a+1336(%rip)
	.cfi_adjust_cfa_offset 8
	pushq	a+1328(%rip)
	.cfi_adjust_cfa_offset 8
	pushq	a+1320(%rip)
	.cfi_adjust_cfa_offset 8
	pushq	a+1312(%rip)
	.cfi_adjust_cfa_offset 8
	pushq	a+1304(%rip)
	.cfi_adjust_cfa_offset 8
	pushq	a+1296(%rip)
	.cfi_adjust_cfa_offset 8
	pushq	a+1288(%rip)
	.cfi_adjust_cfa_offset 8
	pushq	a+1280(%rip)
	.cfi_adjust_cfa_offset 8
	pushq	a+1272(%rip)
	.cfi_adjust_cfa_offset 8
	pushq	a+1264(%rip)
	.cfi_adjust_cfa_offset 8
	pushq	a+1256(%rip)
	.cfi_adjust_cfa_offset 8
	pushq	a+1248(%rip)
	.cfi_adjust_cfa_offset 8
	pushq	a+1240(%rip)
	.cfi_adjust_cfa_offset 8
	pushq	a+1232(%rip)
	.cfi_adjust_cfa_offset 8
	pushq	a+1224(%rip)
	.cfi_adjust_cfa_offset 8
	pushq	a+1216(%rip)
	.cfi_adjust_cfa_offset 8
	pushq	a+1208(%rip)
	.cfi_adjust_cfa_offset 8
	pushq	a+1200(%rip)
	.cfi_adjust_cfa_offset 8
	pushq	a+1192(%rip)
	.cfi_adjust_cfa_offset 8
	pushq	a+1184(%rip)
	.cfi_adjust_cfa_offset 8
	pushq	a+1176(%rip)
	.cfi_adjust_cfa_offset 8
	pushq	a+1168(%rip)
	.cfi_adjust_cfa_offset 8
	pushq	a+1160(%rip)
	.cfi_adjust_cfa_offset 8
	pushq	a+1152(%rip)
	.cfi_adjust_cfa_offset 8
	pushq	a+1144(%rip)
	.cfi_adjust_cfa_offset 8
	pushq	a+1136(%rip)
	.cfi_adjust_cfa_offset 8
	pushq	a+1128(%rip)
	.cfi_adjust_cfa_offset 8
	pushq	a+1120(%rip)
	.cfi_adjust_cfa_offset 8
	pushq	a+1112(%rip)
	.cfi_adjust_cfa_offset 8
	pushq	a+1104(%rip)
	.cfi_adjust_cfa_offset 8
	pushq	a+1096(%rip)
	.cfi_adjust_cfa_offset 8
	pushq	a+1088(%rip)
	.cfi_adjust_cfa_offset 8
	pushq	a+1080(%rip)
	.cfi_adjust_cfa_offset 8
	pushq	a+1072(%rip)
	.cfi_adjust_cfa_offset 8
	pushq	a+1064(%rip)
	.cfi_adjust_cfa_offset 8
	pushq	a+1056(%rip)
	.cfi_adjust_cfa_offset 8
	pushq	a+1048(%rip)
	.cfi_adjust_cfa_offset 8
	pushq	a+1040(%rip)
	.cfi_adjust_cfa_offset 8
	pushq	a+1032(%rip)
	.cfi_adjust_cfa_offset 8
	pushq	a+1024(%rip)
	.cfi_adjust_cfa_offset 8
	pushq	a+1016(%rip)
	.cfi_adjust_cfa_offset 8
	pushq	a+1008(%rip)
	.cfi_adjust_cfa_offset 8
	pushq	a+1000(%rip)
	.cfi_adjust_cfa_offset 8
	pushq	a+992(%rip)
	.cfi_adjust_cfa_offset 8
	pushq	a+984(%rip)
	.cfi_adjust_cfa_offset 8
	pushq	a+976(%rip)
	.cfi_adjust_cfa_offset 8
	pushq	a+968(%rip)
	.cfi_adjust_cfa_offset 8
	pushq	a+960(%rip)
	.cfi_adjust_cfa_offset 8
	pushq	a+952(%rip)
	.cfi_adjust_cfa_offset 8
	pushq	a+944(%rip)
	.cfi_adjust_cfa_offset 8
	pushq	a+936(%rip)
	.cfi_adjust_cfa_offset 8
	pushq	a+928(%rip)
	.cfi_adjust_cfa_offset 8
	pushq	a+920(%rip)
	.cfi_adjust_cfa_offset 8
	pushq	a+912(%rip)
	.cfi_adjust_cfa_offset 8
	pushq	a+904(%rip)
	.cfi_adjust_cfa_offset 8
	pushq	a+896(%rip)
	.cfi_adjust_cfa_offset 8
	pushq	a+888(%rip)
	.cfi_adjust_cfa_offset 8
	pushq	a+880(%rip)
	.cfi_adjust_cfa_offset 8
	pushq	a+872(%rip)
	.cfi_adjust_cfa_offset 8
	pushq	a+864(%rip)
	.cfi_adjust_cfa_offset 8
	pushq	a+856(%rip)
	.cfi_adjust_cfa_offset 8
	pushq	a+848(%rip)
	.cfi_adjust_cfa_offset 8
	pushq	a+840(%rip)
	.cfi_adjust_cfa_offset 8
	pushq	a+832(%rip)
	.cfi_adjust_cfa_offset 8
	pushq	a+824(%rip)
	.cfi_adjust_cfa_offset 8
	pushq	a+816(%rip)
	.cfi_adjust_cfa_offset 8
	pushq	a+808(%rip)
	.cfi_adjust_cfa_offset 8
	pushq	a+800(%rip)
	.cfi_adjust_cfa_offset 8
	pushq	a+792(%rip)
	.cfi_adjust_cfa_offset 8
	pushq	a+784(%rip)
	.cfi_adjust_cfa_offset 8
	pushq	a+776(%rip)
	.cfi_adjust_cfa_offset 8
	pushq	a+768(%rip)
	.cfi_adjust_cfa_offset 8
	pushq	a+760(%rip)
	.cfi_adjust_cfa_offset 8
	pushq	a+752(%rip)
	.cfi_adjust_cfa_offset 8
	pushq	a+744(%rip)
	.cfi_adjust_cfa_offset 8
	pushq	a+736(%rip)
	.cfi_adjust_cfa_offset 8
	pushq	a+728(%rip)
	.cfi_adjust_cfa_offset 8
	pushq	a+720(%rip)
	.cfi_adjust_cfa_offset 8
	pushq	a+712(%rip)
	.cfi_adjust_cfa_offset 8
	pushq	a+704(%rip)
	.cfi_adjust_cfa_offset 8
	pushq	a+696(%rip)
	.cfi_adjust_cfa_offset 8
	pushq	a+688(%rip)
	.cfi_adjust_cfa_offset 8
	pushq	a+680(%rip)
	.cfi_adjust_cfa_offset 8
	pushq	a+672(%rip)
	.cfi_adjust_cfa_offset 8
	pushq	a+664(%rip)
	.cfi_adjust_cfa_offset 8
	pushq	a+656(%rip)
	.cfi_adjust_cfa_offset 8
	pushq	a+648(%rip)
	.cfi_adjust_cfa_offset 8
	pushq	a+640(%rip)
	.cfi_adjust_cfa_offset 8
	pushq	a+632(%rip)
	.cfi_adjust_cfa_offset 8
	pushq	a+624(%rip)
	.cfi_adjust_cfa_offset 8
	pushq	a+616(%rip)
	.cfi_adjust_cfa_offset 8
	pushq	a+608(%rip)
	.cfi_adjust_cfa_offset 8
	pushq	a+600(%rip)
	.cfi_adjust_cfa_offset 8
	pushq	a+592(%rip)
	.cfi_adjust_cfa_offset 8
	pushq	a+584(%rip)
	.cfi_adjust_cfa_offset 8
	pushq	a+576(%rip)
	.cfi_adjust_cfa_offset 8
	pushq	a+568(%rip)
	.cfi_adjust_cfa_offset 8
	pushq	a+560(%rip)
	.cfi_adjust_cfa_offset 8
	pushq	a+552(%rip)
	.cfi_adjust_cfa_offset 8
	pushq	a+544(%rip)
	.cfi_adjust_cfa_offset 8
	pushq	a+536(%rip)
	.cfi_adjust_cfa_offset 8
	pushq	a+528(%rip)
	.cfi_adjust_cfa_offset 8
	pushq	a+520(%rip)
	.cfi_adjust_cfa_offset 8
	pushq	a+512(%rip)
	.cfi_adjust_cfa_offset 8
	pushq	a+504(%rip)
	.cfi_adjust_cfa_offset 8
	pushq	a+496(%rip)
	.cfi_adjust_cfa_offset 8
	pushq	a+488(%rip)
	.cfi_adjust_cfa_offset 8
	pushq	a+480(%rip)
	.cfi_adjust_cfa_offset 8
	pushq	a+472(%rip)
	.cfi_adjust_cfa_offset 8
	pushq	a+464(%rip)
	.cfi_adjust_cfa_offset 8
	pushq	a+456(%rip)
	.cfi_adjust_cfa_offset 8
	pushq	a+448(%rip)
	.cfi_adjust_cfa_offset 8
	pushq	a+440(%rip)
	.cfi_adjust_cfa_offset 8
	pushq	a+432(%rip)
	.cfi_adjust_cfa_offset 8
	pushq	a+424(%rip)
	.cfi_adjust_cfa_offset 8
	pushq	a+416(%rip)
	.cfi_adjust_cfa_offset 8
	pushq	a+408(%rip)
	.cfi_adjust_cfa_offset 8
	pushq	a+400(%rip)
	.cfi_adjust_cfa_offset 8
	pushq	a+392(%rip)
	.cfi_adjust_cfa_offset 8
	pushq	a+384(%rip)
	.cfi_adjust_cfa_offset 8
	pushq	a+376(%rip)
	.cfi_adjust_cfa_offset 8
	pushq	a+368(%rip)
	.cfi_adjust_cfa_offset 8
	pushq	a+360(%rip)
	.cfi_adjust_cfa_offset 8
	pushq	a+352(%rip)
	.cfi_adjust_cfa_offset 8
	pushq	a+344(%rip)
	.cfi_adjust_cfa_offset 8
	pushq	a+336(%rip)
	.cfi_adjust_cfa_offset 8
	pushq	a+328(%rip)
	.cfi_adjust_cfa_offset 8
	pushq	a+320(%rip)
	.cfi_adjust_cfa_offset 8
	pushq	a+312(%rip)
	.cfi_adjust_cfa_offset 8
	pushq	a+304(%rip)
	.cfi_adjust_cfa_offset 8
	pushq	a+296(%rip)
	.cfi_adjust_cfa_offset 8
	pushq	a+288(%rip)
	.cfi_adjust_cfa_offset 8
	pushq	a+280(%rip)
	.cfi_adjust_cfa_offset 8
	pushq	a+272(%rip)
	.cfi_adjust_cfa_offset 8
	pushq	a+264(%rip)
	.cfi_adjust_cfa_offset 8
	pushq	a+256(%rip)
	.cfi_adjust_cfa_offset 8
	pushq	a+248(%rip)
	.cfi_adjust_cfa_offset 8
	pushq	a+240(%rip)
	.cfi_adjust_cfa_offset 8
	pushq	a+232(%rip)
	.cfi_adjust_cfa_offset 8
	pushq	a+224(%rip)
	.cfi_adjust_cfa_offset 8
	pushq	a+216(%rip)
	.cfi_adjust_cfa_offset 8
	pushq	a+208(%rip)
	.cfi_adjust_cfa_offset 8
	pushq	a+200(%rip)
	.cfi_adjust_cfa_offset 8
	pushq	a+192(%rip)
	.cfi_adjust_cfa_offset 8
	pushq	a+184(%rip)
	.cfi_adjust_cfa_offset 8
	pushq	a+176(%rip)
	.cfi_adjust_cfa_offset 8
	pushq	a+168(%rip)
	.cfi_adjust_cfa_offset 8
	pushq	a+160(%rip)
	.cfi_adjust_cfa_offset 8
	pushq	a+152(%rip)
	.cfi_adjust_cfa_offset 8
	pushq	a+144(%rip)
	.cfi_adjust_cfa_offset 8
	pushq	a+136(%rip)
	.cfi_adjust_cfa_offset 8
	pushq	a+128(%rip)
	.cfi_adjust_cfa_offset 8
	pushq	a+120(%rip)
	.cfi_adjust_cfa_offset 8
	pushq	a+112(%rip)
	.cfi_adjust_cfa_offset 8
	pushq	a+104(%rip)
	.cfi_adjust_cfa_offset 8
	pushq	a+96(%rip)
	.cfi_adjust_cfa_offset 8
	pushq	a+88(%rip)
	.cfi_adjust_cfa_offset 8
	pushq	a+80(%rip)
	.cfi_adjust_cfa_offset 8
	pushq	a+72(%rip)
	.cfi_adjust_cfa_offset 8
	pushq	a+64(%rip)
	.cfi_adjust_cfa_offset 8
	pushq	a+56(%rip)
	.cfi_adjust_cfa_offset 8
	pushq	a+48(%rip)
	.cfi_adjust_cfa_offset 8
	callq	insertionSort
	addq	$7968, %rsp             # imm = 0x1F20
	.cfi_adjust_cfa_offset -7968
	movq	$0, 8(%rsp)
	jmp	.LBB0_1
	.p2align	4, 0x90
.LBB0_2:                                # %loop_body
                                        #   in Loop: Header=BB0_1 Depth=1
	movq	8(%rsp), %rax
	movq	a(,%rax,8), %rsi
	movl	$.L__unnamed_1, %edi
	xorl	%eax, %eax
	callq	printf
	movl	$.L__unnamed_2, %edi
	movl	$32, %esi
	xorl	%eax, %eax
	callq	printf
	incq	8(%rsp)
.LBB0_1:                                # %loop_header
                                        # =>This Inner Loop Header: Depth=1
	movq	8(%rsp), %rax
	cmpq	16(%rsp), %rax
	jl	.LBB0_2
# %bb.3:                                # %after_loop
	movl	$.L__unnamed_2, %edi
	movl	$10, %esi
	xorl	%eax, %eax
	callq	printf
	xorl	%eax, %eax
	addq	$24, %rsp
	retq
.Lfunc_end0:
	.size	main, .Lfunc_end0-main
	.cfi_endproc
                                        # -- End function
	.p2align	4, 0x90         # -- Begin function insertionSort
	.type	insertionSort,@function
insertionSort:                          # @insertionSort
	.cfi_startproc
# %bb.0:                                # %body
	movq	$0, -8(%rsp)
	movq	$0, -16(%rsp)
	movq	$0, -24(%rsp)
	retq
.Lfunc_end1:
	.size	insertionSort, .Lfunc_end1-insertionSort
	.cfi_endproc
                                        # -- End function
	.type	.L__unnamed_1,@object   # @0
	.section	.rodata.str1.1,"aMS",@progbits,1
.L__unnamed_1:
	.asciz	"%d"
	.size	.L__unnamed_1, 3

	.type	.L__unnamed_2,@object   # @1
.L__unnamed_2:
	.asciz	"%c"
	.size	.L__unnamed_2, 3

	.type	a,@object               # @a
	.comm	a,8000,16

	.section	".note.GNU-stack","",@progbits
